Certificate:
    Data:
        Version: 3 (0x2)
        Serial Number: 1234567890 (0x499602d2)
        Signature Algorithm: sha256WithRSAEncryption
        Issuer: CN = ca.example.com
        Validity
            Not Before: May 17 06:26:31 2024 GMT
            Not After : May 17 06:26:31 2025 GMT
        Subject: CN = test.example.com
        Subject Public Key Info:
            Public Key Algorithm: rsaEncryption
                RSA Public-Key: (2048 bit)
                Modulus:
                    00:df:9d:82:6a:20:1c:cb:a3:68:01:32:15:e2:8d:
                    1a:9c:25:17:8f:86:7e:ac:af:9a:44:b3:aa:3d:8e:
                    8e:f7:a9:c4:1a:f6:ea:7a:65:8a:72:77:b9:65:9a:
                    59:4e:05:b9:06:8e:51:63:1d:22:7b:37:3d:91:c1:
                    b1:87:9e:fb:c0:c7:bc:9a:25:92:7c:4f:4f:df:e6:
                    dc:9c:a2:c9:09:42:fa:a3:7d:f4:d9:b2:4c:d0:72:
                    03:f2:8e:29:47:a5:e0:6e:e6:4b:6c:c5:06:05:52:
                    af:19:2b:3b:f6:88:60:1f:1b:03:91:0a:46:1d:26:
                    02:29:2d:a4:4b:2b:1f:39:ad:7a:70:d1:99:ca:8a:
                    ad:04:d7:f2:d6:d5:db:cf:27:3e:65:50:c0:ea:7e:
                    90:80:a7:98:97:d5:d7:3b:52:26:13:81:c0:22:7d:
                    25:51:4c:e6:bf:0b:7a:a6:55:4a:59:0c:32:eb:9e:
                    4a:66:c6:b9:e2:1f:a4:34:5a:b5:b9:03:f0:86:82:
                    b1:f9:cc:a4:32:e2:da:26:fe:0e:d5:6d:f4:8d:01:
                    11:18:b6:46:18:ff:bf:d6:6c:50:61:18:a8:db:92:
                    92:dd:55:a2:ed:5c:ac:04:34:8f:a6:cf:32:14:1f:
                    be:1c:86:9b:be:60:a1:d5:ae:a4:2d:4f:91:a1:df:
                    81:a7
                Exponent: 65537 (0x10001)
        X509v3 extensions:
            X509v3 Subject Key Identifier: 
                37:D1:0F:63:96:B3:DA:79:B6:69:A7:B1:49:99:B1:99:42:86:19:54
            X509v3 Authority Key Identifier: 
                keyid:37:D1:0F:63:96:B3:DA:79:B6:69:A7:B1:49:99:B1:99:42:86:19:54

            X509v3 Basic Constraints: critical
                CA:TRUE
    Signature Algorithm: sha256WithRSAEncryption
         9d:fc:4f:94:34:35:f7:af:11:42:f7:2d:bd:d0:2c:f3:a2:e3:
         62:3a:1c:56:0c:92:db:83:d6:0f:16:f8:b8:e0:ff:41:28:a5:
         d2:ed:cd:8c:8a:7b:f4:26:8c:d5:ea:3a:71:bf:24:a2:bc:27:
         b9:a1:f4:8d:2d:a0:9b:84:27:02:5b:97:22:e0:5f:b3:02:27:
         de:9d:37:f0:a7:bb:29:08:3d:6a:6b:19:39:5c:fa:d3:f2:4c:
         2f:44:ba:10:57:5b:0c:b7:ff:b5:9a:89:97:e7:ed:3b:a7:52:
         bd:6a:ef:fd:e2:4a:46:ae:40:91:ff:02:67:aa:44:9b:74:3e:
         64:62:06:e8:04:67:e3:f8:81:34:2b:b9:2b:40:26:fa:10:15:
         1a:9b:d2:45:6b:b5:f5:b5:30:94:8f:3a:8d:85:f5:47:59:4e:
         c3:db:78:67:02:d8:ee:4c:b3:f5:97:a5:2a:1c:12:8b:f9:f5:
         1e:40:70:80:e9:aa:e1:06:5b:1c:03:13:b3:a1:11:e2:db:11:
         73:17:af:b6:39:81:48:07:d7:be:1a:9c:35:d6:b4:36:c8:a0:
         42:1e:81:d4:e7:64:0f:d3:07:34:f9:f5:6c:9a:19:0e:01:e8:
         cd:d7:38:50:f6:d0:57:15:15:bd:86:0b:8c:49:5e:c5:83:1f:
         b5:35:49:e9:43:5f:68:17:f9:9d:c0:ed:5f:1c:a7:ba:0c:fa:
         1b:e6:1b:86:a4:e5:a6:12:68:58:f9:7b:8b:39:81:bb:ef:97:
         8e:0a:df:8c:85:5d:b4:d2:95:25:dd:8a:5f:bb:0b:c4:20:82:
         da:d3:9d:66:d1:8d:57:46:cb:cf:71:42:89:3f:7a:27:1b:a8:
         71:cc:a2:25:66:bc:6b:ae:d1:ff:a4:d6:bc:0d:86:26:cb:f1:
         de:10:1a:04:4d:da:c6:3b:7a:ad:e1:2f:ec:61:7d:fb:45:6d:
         f7:fc:30:25:15:2d:87:6a:01:af:4a:4a:46:1a:33:69:dc:76:
         bb:ec:7e:a9:ca:74:b0:0d:54:2d:86:e5:b0:01:f8:b3:91:49:
         b5:dc:8f:86:74:3c:6e:6b:b6:79:42:01:cd:f6:8d:bf:6e:9b:
         0b:4c:1a:53:a5:04:56:90:d2:e3:70:bc:69:84:34:05:0f:5b:
         1b:f8:4d:1a:26:73:f6:bb:b6:03:4d:05:73:77:6f:b6:d2:8b:
         32:c4:30:98:58:e2:da:16:11:fc:e0:3b:94:39:2d:6a:8c:3b:
         de:03:65:2d:66:07:6f:49:2e:b1:97:ce:6b:9e:ae:18:3c:b4:
         53:4a:d8:33:98:14:e6:78:eb:ac:2d:c8:3a:f6:f2:21:9b:a8:
         01:92:c8:92:fa:e5:e4:d1
-----BEGIN CERTIFICATE-----
MIIEBTCCAe2gAwIBAgIESZYC0jANBgkqhkiG9w0BAQsFADAZMRcwFQYDVQQDDA5j
YS5leGFtcGxlLmNvbTAeFw0yNDA1MTcwNjI2MzFaFw0yNTA1MTcwNjI2MzFaMBsx
GTAXBgNVBAMMEHRlc3QuZXhhbXBsZS5jb20wggEiMA0GCSqGSIb3DQEBAQUAA4IB
DwAwggEKAoIBAQDfnYJqIBzLo2gBMhXijRqcJRePhn6sr5pEs6o9jo73qcQa9up6
ZYpyd7llmllOBbkGjlFjHSJ7Nz2RwbGHnvvAx7yaJZJ8T0/f5tycoskJQvqjffTZ
skzQcgPyjilHpeBu5ktsxQYFUq8ZKzv2iGAfGwORCkYdJgIpLaRLKx85rXpw0ZnK
iq0E1/LW1dvPJz5lUMDqfpCAp5iX1dc7UiYTgcAifSVRTOa/C3qmVUpZDDLrnkpm
xrniH6Q0WrW5A/CGgrH5zKQy4tom/g7VbfSNAREYtkYY/7/WbFBhGKjbkpLdVaLt
XKwENI+mzzIUH74chpu+YKHVrqQtT5Gh34GnAgMBAAGjUzBRMB0GA1UdDgQWBBQ3
0Q9jlrPaebZpp7FJmbGZQoYZVDAfBgNVHSMEGDAWgBQ30Q9jlrPaebZpp7FJmbGZ
QoYZVDAPBgNVHRMBAf8EBTADAQH/MA0GCSqGSIb3DQEBCwUAA4ICAQCd/E+UNDX3
rxFC9y290CzzouNiOhxWDJLbg9YPFvi44P9BKKXS7c2Minv0JozV6jpxvySivCe5
ofSNLaCbhCcCW5ci4F+zAifenTfwp7spCD1qaxk5XPrT8kwvRLoQV1sMt/+1momX
5+07p1K9au/94kpGrkCR/wJnqkSbdD5kYgboBGfj+IE0K7krQCb6EBUam9JFa7X1
tTCUjzqNhfVHWU7D23hnAtjuTLP1l6UqHBKL+fUeQHCA6arhBlscAxOzoRHi2xFz
F6+2OYFIB9e+Gpw11rQ2yKBCHoHU52QP0wc0+fVsmhkOAejN1zhQ9tBXFRW9hguM
SV7Fgx+1NUnpQ19oF/mdwO1fHKe6DPob5huGpOWmEmhY+XuLOYG775eOCt+MhV20
0pUl3YpfuwvEIILa051m0Y1XRsvPcUKJP3onG6hxzKIlZrxrrtH/pNa8DYYmy/He
EBoETdrGO3qt4S/sYX37RW33/DAlFS2HagGvSkpGGjNp3Ha77H6pynSwDVQthuWw
AfizkUm13I+GdDxua7Z5QgHN9o2/bpsLTBpTpQRWkNLjcLxphDQFD1sb+E0aJnP2
u7YDTQVzd2+20osyxDCYWOLaFhH84DuUOS1qjDveA2UtZgdvSS6xl85rnq4YPLRT
StgzmBTmeOusLcg69vIhm6gBksiS+uXk0Q==
-----END CERTIFICATE-----
