Certificate:
    Data:
        Version: 1 (0x0)
        Serial Number:
            1c:bf:8b:40:aa:e3:ab:ae:5f:3a:bc:1a:a7:ba:19:5e:79:5b:70:0b
        Signature Algorithm: NULL
        Issuer: CN = ca.example.com
        Validity
            Not Before: May 17 06:26:33 2024 GMT
            Not After : Jun 16 06:26:33 2024 GMT
        Subject: CN = b.example.com
        Subject Public Key Info:
            Public Key Algorithm: rsaEncryption
                RSA Public-Key: (4096 bit)
                Modulus:
                    00:cb:e3:0c:19:61:a2:3b:38:a3:f1:cf:11:e4:2c:
                    29:88:3e:18:87:1a:ca:1a:7c:54:04:63:2a:11:25:
                    c4:2d:94:1d:44:02:9b:23:b9:d9:6a:76:4b:bc:b0:
                    76:e9:0d:eb:0e:ab:cf:99:33:44:68:f9:a1:ad:ed:
                    62:47:d1:6c:04:00:58:6b:dc:9a:ac:4e:af:d8:97:
                    91:e1:9b:22:c8:8c:6a:be:41:49:1e:d6:e6:39:43:
                    fb:d9:00:66:7e:03:92:19:65:76:bf:63:d2:d7:82:
                    7e:6b:f2:3c:3b:6d:04:6a:3f:f0:21:26:67:30:23:
                    96:35:ed:98:9d:03:d6:62:79:37:98:ca:ca:d0:8e:
                    89:b8:75:2d:ba:d0:f0:b2:c1:4b:73:5e:7a:06:62:
                    e8:d6:a9:47:cc:a4:51:8f:9d:d4:fa:37:61:1d:4e:
                    19:89:0b:0c:b1:b7:85:ba:e7:d2:82:c3:9a:b8:b9:
                    7b:96:99:00:c1:f2:5a:40:04:b0:d3:27:4d:13:d9:
                    ea:34:bf:1b:4c:d7:9c:80:46:e2:9d:74:e3:8d:99:
                    b5:1d:13:89:34:ce:86:3e:1e:99:23:3a:16:f4:d8:
                    97:65:e4:b9:00:85:fd:7b:5d:d8:fe:7f:e2:f9:a4:
                    2f:10:4f:7a:9f:bd:74:cd:5a:91:7a:4b:29:82:ba:
                    98:47:94:63:8e:bf:de:37:bb:5c:a8:ae:a5:b5:1d:
                    47:70:3e:72:ba:5b:ee:44:8f:9d:72:1d:cb:14:d6:
                    4a:df:cd:8a:b1:67:06:29:0d:3e:97:e0:4f:a6:3e:
                    85:b7:42:26:32:8d:a5:3f:d7:57:86:59:9a:5e:9b:
                    55:ac:16:f5:32:c9:ad:d8:16:a1:ee:4e:a9:20:a1:
                    a5:96:5b:5d:f8:86:76:6b:9b:ab:56:ff:d1:2d:90:
                    e4:76:b1:e0:63:e1:00:e2:99:32:81:1a:a1:92:1f:
                    80:29:42:40:82:0c:70:7e:cf:01:f0:cd:b0:5f:0c:
                    12:3d:3a:04:e3:47:6a:8c:f9:8e:56:df:c5:c3:96:
                    33:51:67:1b:63:d8:da:02:2f:70:e5:cf:95:59:72:
                    c5:a6:63:ab:73:fb:b4:4f:8d:3c:0e:9d:7c:47:a8:
                    38:49:7d:43:fe:2b:4c:58:e2:c5:7c:a7:18:32:b4:
                    19:b5:3a:73:38:fe:71:4f:46:bc:e1:9b:f0:0d:60:
                    51:7c:bf:0d:3e:e5:9d:7f:b9:1b:00:47:3c:86:97:
                    12:bf:b6:ca:93:16:85:55:0c:91:a6:2a:e1:e0:c8:
                    d3:ab:5f:ce:22:05:93:f8:af:89:05:cf:0d:9d:ad:
                    98:53:7f:d4:5d:33:a3:5d:46:48:68:8c:0a:13:0c:
                    62:3d:55
                Exponent: 65537 (0x10001)
    Signature Algorithm: NULL
-----BEGIN CERTIFICATE-----
MIIEuDCCAqACFDKULmO5ONKxeCvuPO1J266RjZjPMA0GCSqGSIb3DQEBCwUAMBkx
FzAVBgNVBAMMDmNhLmV4YW1wbGUuY29tMB4XDTI0MDUxNzA2MjYzM1oXDTI0MDYx
NjA2MjYzM1owGDEWMBQGA1UEAwwNYi5leGFtcGxlLmNvbTCCAiIwDQYJKoZIhvcN
AQEBBQADggIPADCCAgoCggIBAMvjDBlhojs4o/HPEeQsKYg+GIcayhp8VARjKhEl
xC2UHUQCmyO52Wp2S7ywdukN6w6rz5kzRGj5oa3tYkfRbAQAWGvcmqxOr9iXkeGb
IsiMar5BSR7W5jlD+9kAZn4Dkhlldr9j0teCfmvyPDttBGo/8CEmZzAjljXtmJ0D
1mJ5N5jKytCOibh1LbrQ8LLBS3NeegZi6NapR8ykUY+d1Po3YR1OGYkLDLG3hbrn
0oLDmri5e5aZAMHyWkAEsNMnTRPZ6jS/G0zXnIBG4p10442ZtR0TiTTOhj4emSM6
FvTYl2XkuQCF/Xtd2P5/4vmkLxBPep+9dM1akXpLKYK6mEeUY46/3je7XKiupbUd
R3A+crpb7kSPnXIdyxTWSt/NirFnBikNPpfgT6Y+hbdCJjKNpT/XV4ZZml6bVawW
9TLJrdgWoe5OqSChpZZbXfiGdmubq1b/0S2Q5Hax4GPhAOKZMoEaoZIfgClCQIIM
cH7PAfDNsF8MEj06BONHaoz5jlbfxcOWM1FnG2PY2gIvcOXPlVlyxaZjq3P7tE+N
PA6dfEeoOEl9Q/4rTFjixXynGDK0GbU6czj+cU9GvOGb8A1gUXy/DT7lnX+5GwBH
PIaXEr+2ypMWhVUMkaYq4eDI06tfziIFk/iviQXPDZ2tmFN/1F0zo11GSGiMChMM
Yj1VAgMBAAEwDQYJKoZIhvcNAQELBQADggIBAG78/Oy+Oi33W86Fl697h85YVVGP
xh6Lu2IpBOCdy/GWlWcdoLxlVMdQJaaAvZnJ9bKlFpiijexX6/RjK1TD7TLumeyh
FszPxuJ674vNjUxJ6dnar54e5nZbXGfrr+DKkYF0YCiSto4ynTIMxobEJxymiWr0
ixwYRGudQxb2kHg9jQNUhC4cweDDvZCUoo0oP8+tBRsuSlqVXjRBfFPVngmOc47B
Ee1QNxakIdCpjxiShKviSE+/QRmsdCPupKr/n3Wp4aHj83Bo1PWTqTmyNc1Q7PlC
JNVgLwTMKOnc2eGL1dzgBLVNDSDMrdXBQVTGP0q/WtwBftHMJqQRTRDSZDLSCA6l
I9SsUNq+WAjC9dOC2BPozkKP4FZ9psZDMSWXZ5fT7Ljli5HQyMFprbeKcYHvlvcm
Xa4+Z3bE/2kbuQ8b7kzIc3ADTb78INeO9HuZH1hDdXykOztYy27RkJL2U0NfJ7Vl
mlkVIb9F/RZQ8OOoQxgEdTgfXo9Ydmrhcbl2ZyPdXA2VzmGBsH7vUOzIVatOcvT6
cKgrry0ZKHjJs9Uef2upUSG5TPneqYW4ShoE76FyMI0X9mRw+4kEyYFUWoyVzQOp
yEnmUATw/xXJ4d5PA3DpCytbEg9hmb7WD4W1bGP7eleiE6102L+m2zyFqX7skbrg
XsJe5rrT9kFJQV+Z
-----END CERTIFICATE-----
